target datalayout = "e-m:e-p270:32:32-p271:32:32-p272:64:64-i64:64-i128:128-f80:128-n8:16:32:64-S128"
target triple = "x86_64-pc-linux-gnu"

%struct.INamesArg = type { ptr, ptr, ptr, i32, ptr }
%struct.NameEntry = type { ptr, i64, i32, i32, i32, ptr }

; Function Attrs: nounwind sspstrong uwtable
define internal i32 @i_names(i64 noundef %0, i64 noundef %1, i64 noundef %2) #0 {
  %4 = alloca i32, align 4
  %5 = alloca i64, align 8
  %6 = alloca i64, align 8
  %7 = alloca i64, align 8
  %8 = alloca ptr, align 8
  %9 = alloca ptr, align 8
  %10 = alloca i32, align 4
  %11 = alloca i32, align 4
  store i64 %0, ptr %5, align 8, !tbaa !15
  store i64 %1, ptr %6, align 8, !tbaa !15
  store i64 %2, ptr %7, align 8, !tbaa !15
  call void @llvm.lifetime.start.p0(i64 8, ptr %8) #13
  %12 = load i64, ptr %6, align 8, !tbaa !15
  %13 = inttoptr i64 %12 to ptr
  store ptr %13, ptr %8, align 8, !tbaa !12
  call void @llvm.lifetime.start.p0(i64 8, ptr %9) #13
  %14 = load i64, ptr %7, align 8, !tbaa !15
  %15 = inttoptr i64 %14 to ptr
  store ptr %15, ptr %9, align 8, !tbaa !12
  call void @llvm.lifetime.start.p0(i64 4, ptr %10) #13
  %16 = load ptr, ptr %9, align 8, !tbaa !12
  %17 = getelementptr inbounds nuw %struct.INamesArg, ptr %16, i32 0, i32 0
  %18 = load ptr, ptr %17, align 8, !tbaa !40
  %19 = load ptr, ptr %8, align 8, !tbaa !12
  %20 = getelementptr inbounds nuw %struct.NameEntry, ptr %19, i32 0, i32 0
  %21 = load ptr, ptr %20, align 8, !tbaa !52
  %22 = load ptr, ptr %8, align 8, !tbaa !12
  %23 = getelementptr inbounds nuw %struct.NameEntry, ptr %22, i32 0, i32 0
  %24 = load ptr, ptr %23, align 8, !tbaa !52
  %25 = load ptr, ptr %8, align 8, !tbaa !12
  %26 = getelementptr inbounds nuw %struct.NameEntry, ptr %25, i32 0, i32 1
  %27 = load i64, ptr %26, align 8, !tbaa !46
  %28 = getelementptr i8, ptr %24, i64 %27
  %29 = load ptr, ptr %8, align 8, !tbaa !12
  %30 = getelementptr inbounds nuw %struct.NameEntry, ptr %29, i32 0, i32 2
  %31 = load i32, ptr %30, align 8, !tbaa !48
  %32 = load ptr, ptr %8, align 8, !tbaa !12
  %33 = getelementptr inbounds nuw %struct.NameEntry, ptr %32, i32 0, i32 2
  %34 = load i32, ptr %33, align 8, !tbaa !48
  %35 = icmp sgt i32 %34, 1
  br i1 %35, label %36, label %40

36:                                               ; preds = %3
  %37 = load ptr, ptr %8, align 8, !tbaa !12
  %38 = getelementptr inbounds nuw %struct.NameEntry, ptr %37, i32 0, i32 5
  %39 = load ptr, ptr %38, align 8, !tbaa !51
  br label %43

40:                                               ; preds = %3
  %41 = load ptr, ptr %8, align 8, !tbaa !12
  %42 = getelementptr inbounds nuw %struct.NameEntry, ptr %41, i32 0, i32 4
  br label %43

43:                                               ; preds = %40, %36
  %44 = phi ptr [ %39, %36 ], [ %42, %40 ]
  %45 = load ptr, ptr %9, align 8, !tbaa !12
  %46 = getelementptr inbounds nuw %struct.INamesArg, ptr %45, i32 0, i32 1
  %47 = load ptr, ptr %46, align 8, !tbaa !41
  %48 = load ptr, ptr %9, align 8, !tbaa !12
  %49 = getelementptr inbounds nuw %struct.INamesArg, ptr %48, i32 0, i32 2
  %50 = load ptr, ptr %49, align 8, !tbaa !42
  %51 = call i32 %18(ptr noundef %21, ptr noundef %28, i32 noundef %31, ptr noundef %44, ptr noundef %47, ptr noundef %50)
  store i32 %51, ptr %10, align 4, !tbaa !13
  %52 = load i32, ptr %10, align 4, !tbaa !13
  %53 = icmp ne i32 %52, 0
  br i1 %53, label %54, label %58

54:                                               ; preds = %43
  %55 = load i32, ptr %10, align 4, !tbaa !13
  %56 = load ptr, ptr %9, align 8, !tbaa !12
  %57 = getelementptr inbounds nuw %struct.INamesArg, ptr %56, i32 0, i32 3
  store i32 %55, ptr %57, align 8, !tbaa !38
  store i32 1, ptr %4, align 4
  store i32 1, ptr %11, align 4
  br label %59

58:                                               ; preds = %43
  store i32 0, ptr %4, align 4
  store i32 1, ptr %11, align 4
  br label %59

59:                                               ; preds = %58, %54
  call void @llvm.lifetime.end.p0(i64 4, ptr %10) #13
  call void @llvm.lifetime.end.p0(i64 8, ptr %9) #13
  call void @llvm.lifetime.end.p0(i64 8, ptr %8) #13
  %60 = load i32, ptr %4, align 4
  ret i32 %60
}