; Function Attrs: nounwind sspstrong uwtable
define internal range(i32 0, 2) i32 @i_names(i64 %0, i64 noundef %1, i64 noundef %2) #5 {
  %4 = inttoptr i64 %1 to ptr
  %5 = inttoptr i64 %2 to ptr
  %6 = load ptr, ptr %5, align 8, !tbaa !34
  %7 = load ptr, ptr %4, align 8, !tbaa !47
  %8 = getelementptr inbounds nuw i8, ptr %4, i64 8
  %9 = load i64, ptr %8, align 8, !tbaa !39
  %10 = getelementptr i8, ptr %7, i64 %9
  %11 = getelementptr inbounds nuw i8, ptr %4, i64 16
  %12 = load i32, ptr %11, align 8, !tbaa !41
  %13 = icmp sgt i32 %12, 1
  br i1 %13, label %14, label %17

14:                                               ; preds = %3
  %15 = getelementptr inbounds nuw i8, ptr %4, i64 32
  %16 = load ptr, ptr %15, align 8, !tbaa !44
  br label %19

17:                                               ; preds = %3
  %18 = getelementptr inbounds nuw i8, ptr %4, i64 24
  br label %19

19:                                               ; preds = %17, %14
  %20 = phi ptr [ %16, %14 ], [ %18, %17 ]
  %21 = getelementptr inbounds nuw i8, ptr %5, i64 8
  %22 = load ptr, ptr %21, align 8, !tbaa !35
  %23 = getelementptr inbounds nuw i8, ptr %5, i64 16
  %24 = load ptr, ptr %23, align 8, !tbaa !36
  %25 = tail call i32 %6(ptr noundef %7, ptr noundef %10, i32 noundef %12, ptr noundef %20, ptr noundef %22, ptr noundef %24) #25
  %.not = icmp eq i32 %25, 0
  br i1 %.not, label %28, label %26

26:                                               ; preds = %19
  %27 = getelementptr inbounds nuw i8, ptr %5, i64 24
  store i32 %25, ptr %27, align 8, !tbaa !32
  br label %28

28:                                               ; preds = %19, %26
  %.0 = phi i32 [ 1, %26 ], [ 0, %19 ]
  ret i32 %.0
}